; Function Attrs: mustprogress uwtable
define internal fastcc void @_ZN3ue2L7pushDecEPjc(ptr noundef nonnull captures(none) %0, i8 noundef signext %1) unnamed_addr #0 personality ptr @__gxx_personality_v0 {
  %3 = alloca %"class.std::__cxx11::basic_string", align 8
  %4 = alloca %"class.std::allocator.2", align 1
  %5 = sext i8 %1 to i64
  %6 = add nsw i64 %5, 4294967248
  %7 = load i32, ptr %0, align 4
  %8 = zext i32 %7 to i64
  %9 = mul nuw nsw i64 %8, 10
  %10 = and i64 %6, 4294967295
  %11 = add nuw nsw i64 %9, %10
  %12 = icmp samesign ugt i64 %11, 2147483647
  br i1 %12, label %13, label %_ZN3ue210verify_u32IyEEjT_.exit

13:                                               ; preds = %2
  %14 = tail call ptr @__cxa_allocate_exception(i64 56) #24
  call void @llvm.lifetime.start.p0(i64 1, ptr nonnull %4) #24
  invoke void @_ZNSt7__cxx1112basic_stringIcSt11char_traitsIcESaIcEEC2EPKcRKS3_(ptr noundef nonnull align 8 dereferenceable(32) %3, ptr noundef nonnull @.str.45, ptr noundef nonnull align 1 dereferenceable(1) %4)
          to label %15 unwind label %_ZNSt7__cxx1112basic_stringIcSt11char_traitsIcESaIcEED2Ev.exit.thread

15:                                               ; preds = %13
  invoke void @_ZN3ue217LocatedParseErrorC2ENSt7__cxx1112basic_stringIcSt11char_traitsIcESaIcEEE(ptr noundef nonnull align 8 dereferenceable(49) %14, ptr noundef nonnull %3)
          to label %16 unwind label %18

16:                                               ; preds = %15
  invoke void @__cxa_throw(ptr nonnull %14, ptr nonnull @_ZTIN3ue217LocatedParseErrorE, ptr nonnull @_ZN3ue217LocatedParseErrorD1Ev) #27
          to label %29 unwind label %18

_ZNSt7__cxx1112basic_stringIcSt11char_traitsIcESaIcEED2Ev.exit.thread: ; preds = %13
  %17 = landingpad { ptr, i32 }
          cleanup
  call void @llvm.lifetime.end.p0(i64 1, ptr nonnull %4) #24
  br label %26

18:                                               ; preds = %16, %15
  %.0 = phi i1 [ false, %16 ], [ true, %15 ]
  %19 = landingpad { ptr, i32 }
          cleanup
  %20 = load ptr, ptr %3, align 8
  %21 = getelementptr inbounds nuw i8, ptr %3, i64 16
  %22 = icmp eq ptr %20, %21
  br i1 %22, label %_ZNKSt7__cxx1112basic_stringIcSt11char_traitsIcESaIcEE11_M_is_localEv.exit.thread.i.i, label %_ZNSt7__cxx1112basic_stringIcSt11char_traitsIcESaIcEED2Ev.exit

_ZNKSt7__cxx1112basic_stringIcSt11char_traitsIcESaIcEE11_M_is_localEv.exit.thread.i.i: ; preds = %18
  %23 = getelementptr inbounds nuw i8, ptr %3, i64 8
  %24 = load i64, ptr %23, align 8
  %25 = icmp ult i64 %24, 16
  call void @llvm.assume(i1 %25)
  call void @llvm.lifetime.end.p0(i64 1, ptr nonnull %4) #24
  br i1 %.0, label %26, label %27

_ZNSt7__cxx1112basic_stringIcSt11char_traitsIcESaIcEED2Ev.exit: ; preds = %18
  call void @_ZdlPv(ptr noundef %20) #26
  call void @llvm.lifetime.end.p0(i64 1, ptr nonnull %4) #24
  br i1 %.0, label %26, label %27

26:                                               ; preds = %_ZNKSt7__cxx1112basic_stringIcSt11char_traitsIcESaIcEE11_M_is_localEv.exit.thread.i.i, %_ZNSt7__cxx1112basic_stringIcSt11char_traitsIcESaIcEED2Ev.exit.thread, %_ZNSt7__cxx1112basic_stringIcSt11char_traitsIcESaIcEED2Ev.exit
  %.pn15 = phi { ptr, i32 } [ %17, %_ZNSt7__cxx1112basic_stringIcSt11char_traitsIcESaIcEED2Ev.exit.thread ], [ %19, %_ZNSt7__cxx1112basic_stringIcSt11char_traitsIcESaIcEED2Ev.exit ], [ %19, %_ZNKSt7__cxx1112basic_stringIcSt11char_traitsIcESaIcEE11_M_is_localEv.exit.thread.i.i ]
  call void @__cxa_free_exception(ptr %14) #24
  br label %27

27:                                               ; preds = %_ZNKSt7__cxx1112basic_stringIcSt11char_traitsIcESaIcEE11_M_is_localEv.exit.thread.i.i, %26, %_ZNSt7__cxx1112basic_stringIcSt11char_traitsIcESaIcEED2Ev.exit
  %.pn14 = phi { ptr, i32 } [ %.pn15, %26 ], [ %19, %_ZNSt7__cxx1112basic_stringIcSt11char_traitsIcESaIcEED2Ev.exit ], [ %19, %_ZNKSt7__cxx1112basic_stringIcSt11char_traitsIcESaIcEE11_M_is_localEv.exit.thread.i.i ]
  resume { ptr, i32 } %.pn14

_ZN3ue210verify_u32IyEEjT_.exit:                  ; preds = %2
  %28 = trunc nuw i64 %11 to i32
  store i32 %28, ptr %0, align 4
  ret void

29:                                               ; preds = %16
  unreachable
}